target datalayout = "e-m:e-p270:32:32-p271:32:32-p272:64:64-i64:64-i128:128-f80:128-n8:16:32:64-S128"
target triple = "x86_64-pc-linux-gnu"

%"class.metaspace::MetaspaceArena" = type { ptr, ptr, %"class.metaspace::MetachunkList", ptr, ptr, ptr }
%"class.metaspace::MetachunkList" = type <{ ptr, %"class.metaspace::AbstractCounter", [4 x i8] }>
%"class.metaspace::AbstractCounter" = type { i32 }
%"class.metaspace::Metachunk" = type { ptr, i64, i64, i8, i8, ptr, ptr, ptr, ptr, ptr }

; Function Attrs: mustprogress nounwind uwtable
define linkonce_odr hidden noundef i64 @_ZN9metaspace10chunklevel19word_size_for_levelEa(i8 noundef signext %0) #1 comdat {
  %2 = alloca i8, align 1
  store i8 %0, ptr %2, align 1
  %3 = load i8, ptr %2, align 1
  %4 = sext i8 %3 to i32
  %5 = zext i32 %4 to i64
  %6 = lshr i64 16777216, %5
  %7 = udiv i64 %6, 8
  ret i64 %7
}

; Function Attrs: mustprogress nounwind uwtable
define linkonce_odr hidden noundef ptr @_ZNK9metaspace9Metachunk4nextEv(ptr noundef nonnull align 8 dereferenceable(72) %0) #1 comdat align 2 {
  %2 = alloca ptr, align 8
  store ptr %0, ptr %2, align 8
  %3 = load ptr, ptr %2, align 8
  %4 = getelementptr inbounds %"class.metaspace::Metachunk", ptr %3, i32 0, i32 7
  %5 = load ptr, ptr %4, align 8
  ret ptr %5
}

; Function Attrs: mustprogress nounwind uwtable
define linkonce_odr hidden noundef i64 @_ZNK9metaspace9Metachunk9word_sizeEv(ptr noundef nonnull align 8 dereferenceable(72) %0) #1 comdat align 2 {
  %2 = alloca ptr, align 8
  store ptr %0, ptr %2, align 8
  %3 = load ptr, ptr %2, align 8
  %4 = getelementptr inbounds %"class.metaspace::Metachunk", ptr %3, i32 0, i32 3
  %5 = load i8, ptr %4, align 8
  %6 = call noundef i64 @_ZN9metaspace10chunklevel19word_size_for_levelEa(i8 noundef signext %5)
  ret i64 %6
}

; Function Attrs: mustprogress nounwind uwtable
define linkonce_odr hidden noundef i64 @_ZNK9metaspace9Metachunk15committed_wordsEv(ptr noundef nonnull align 8 dereferenceable(72) %0) #1 comdat align 2 {
  %2 = alloca ptr, align 8
  store ptr %0, ptr %2, align 8
  %3 = load ptr, ptr %2, align 8
  %4 = getelementptr inbounds %"class.metaspace::Metachunk", ptr %3, i32 0, i32 2
  %5 = load i64, ptr %4, align 8
  ret i64 %5
}

; Function Attrs: mustprogress nounwind uwtable
define linkonce_odr hidden noundef i64 @_ZNK9metaspace9Metachunk10used_wordsEv(ptr noundef nonnull align 8 dereferenceable(72) %0) #1 comdat align 2 {
  %2 = alloca ptr, align 8
  store ptr %0, ptr %2, align 8
  %3 = load ptr, ptr %2, align 8
  %4 = getelementptr inbounds %"class.metaspace::Metachunk", ptr %3, i32 0, i32 1
  %5 = load i64, ptr %4, align 8
  ret i64 %5
}

; Function Attrs: mustprogress nounwind uwtable
define linkonce_odr hidden noundef ptr @_ZNK9metaspace13MetachunkList5firstEv(ptr noundef nonnull align 8 dereferenceable(12) %0) #1 comdat align 2 {
  %2 = alloca ptr, align 8
  store ptr %0, ptr %2, align 8
  %3 = load ptr, ptr %2, align 8
  %4 = getelementptr inbounds %"class.metaspace::MetachunkList", ptr %3, i32 0, i32 0
  %5 = load ptr, ptr %4, align 8
  ret ptr %5
}

; Function Attrs: mustprogress nounwind uwtable
define hidden void @_ZNK9metaspace14MetaspaceArena13usage_numbersEPmS1_S1_(ptr noundef nonnull align 8 dereferenceable(56) %0, ptr noundef %1, ptr noundef %2, ptr noundef %3) #1 align 2 {
  %5 = alloca ptr, align 8
  %6 = alloca ptr, align 8
  %7 = alloca ptr, align 8
  %8 = alloca ptr, align 8
  %9 = alloca i64, align 8
  %10 = alloca i64, align 8
  %11 = alloca i64, align 8
  %12 = alloca ptr, align 8
  store ptr %0, ptr %5, align 8
  store ptr %1, ptr %6, align 8
  store ptr %2, ptr %7, align 8
  store ptr %3, ptr %8, align 8
  %13 = load ptr, ptr %5, align 8
  store i64 0, ptr %9, align 8
  store i64 0, ptr %10, align 8
  store i64 0, ptr %11, align 8
  %14 = getelementptr inbounds %"class.metaspace::MetaspaceArena", ptr %13, i32 0, i32 2
  %15 = call noundef ptr @_ZNK9metaspace13MetachunkList5firstEv(ptr noundef nonnull align 8 dereferenceable(12) %14)
  store ptr %15, ptr %12, align 8
  br label %16

16:                                               ; preds = %32, %4
  %17 = load ptr, ptr %12, align 8
  %18 = icmp ne ptr %17, null
  br i1 %18, label %19, label %35

19:                                               ; preds = %16
  %20 = load ptr, ptr %12, align 8
  %21 = call noundef i64 @_ZNK9metaspace9Metachunk10used_wordsEv(ptr noundef nonnull align 8 dereferenceable(72) %20)
  %22 = load i64, ptr %9, align 8
  %23 = add i64 %22, %21
  store i64 %23, ptr %9, align 8
  %24 = load ptr, ptr %12, align 8
  %25 = call noundef i64 @_ZNK9metaspace9Metachunk15committed_wordsEv(ptr noundef nonnull align 8 dereferenceable(72) %24)
  %26 = load i64, ptr %10, align 8
  %27 = add i64 %26, %25
  store i64 %27, ptr %10, align 8
  %28 = load ptr, ptr %12, align 8
  %29 = call noundef i64 @_ZNK9metaspace9Metachunk9word_sizeEv(ptr noundef nonnull align 8 dereferenceable(72) %28)
  %30 = load i64, ptr %11, align 8
  %31 = add i64 %30, %29
  store i64 %31, ptr %11, align 8
  br label %32

32:                                               ; preds = %19
  %33 = load ptr, ptr %12, align 8
  %34 = call noundef ptr @_ZNK9metaspace9Metachunk4nextEv(ptr noundef nonnull align 8 dereferenceable(72) %33)
  store ptr %34, ptr %12, align 8
  br label %16, !llvm.loop !9

35:                                               ; preds = %16
  %36 = load ptr, ptr %6, align 8
  %37 = icmp ne ptr %36, null
  br i1 %37, label %38, label %41

38:                                               ; preds = %35
  %39 = load i64, ptr %9, align 8
  %40 = load ptr, ptr %6, align 8
  store i64 %39, ptr %40, align 8
  br label %41

41:                                               ; preds = %38, %35
  %42 = load ptr, ptr %7, align 8
  %43 = icmp ne ptr %42, null
  br i1 %43, label %44, label %47

44:                                               ; preds = %41
  %45 = load i64, ptr %10, align 8
  %46 = load ptr, ptr %7, align 8
  store i64 %45, ptr %46, align 8
  br label %47

47:                                               ; preds = %44, %41
  %48 = load ptr, ptr %8, align 8
  %49 = icmp ne ptr %48, null
  br i1 %49, label %50, label %53

50:                                               ; preds = %47
  %51 = load i64, ptr %11, align 8
  %52 = load ptr, ptr %8, align 8
  store i64 %51, ptr %52, align 8
  br label %53

53:                                               ; preds = %50, %47
  ret void
}