; Function Attrs: mustprogress nofree norecurse nosync nounwind memory(read, argmem: readwrite, inaccessiblemem: none) uwtable
define hidden void @_ZNK9metaspace14MetaspaceArena13usage_numbersEPmS1_S1_(ptr nocapture noundef nonnull readonly align 8 dereferenceable(56) %0, ptr noundef writeonly %1, ptr noundef writeonly %2, ptr noundef writeonly %3) local_unnamed_addr #5 align 2 {
  %5 = getelementptr inbounds i8, ptr %0, i64 16
  %.026 = load ptr, ptr %5, align 8
  %.not27 = icmp eq ptr %.026, null
  br i1 %.not27, label %._crit_edge, label %.lr.ph

.lr.ph:                                           ; preds = %4, %.lr.ph
  %.031 = phi ptr [ %.0, %.lr.ph ], [ %.026, %4 ]
  %.01730 = phi i64 [ %17, %.lr.ph ], [ 0, %4 ]
  %.01829 = phi i64 [ %11, %.lr.ph ], [ 0, %4 ]
  %.01928 = phi i64 [ %8, %.lr.ph ], [ 0, %4 ]
  %6 = getelementptr inbounds i8, ptr %.031, i64 8
  %7 = load i64, ptr %6, align 8
  %8 = add i64 %7, %.01928
  %9 = getelementptr inbounds i8, ptr %.031, i64 16
  %10 = load i64, ptr %9, align 8
  %11 = add i64 %10, %.01829
  %12 = getelementptr inbounds i8, ptr %.031, i64 24
  %13 = load i8, ptr %12, align 8
  %14 = sext i8 %13 to i64
  %15 = and i64 %14, 4294967295
  %16 = lshr i64 2097152, %15
  %17 = add i64 %16, %.01730
  %18 = getelementptr inbounds i8, ptr %.031, i64 48
  %.0 = load ptr, ptr %18, align 8
  %.not = icmp eq ptr %.0, null
  br i1 %.not, label %._crit_edge, label %.lr.ph, !llvm.loop !10

._crit_edge:                                      ; preds = %.lr.ph, %4
  %.019.lcssa = phi i64 [ 0, %4 ], [ %8, %.lr.ph ]
  %.018.lcssa = phi i64 [ 0, %4 ], [ %11, %.lr.ph ]
  %.017.lcssa = phi i64 [ 0, %4 ], [ %17, %.lr.ph ]
  %.not23 = icmp eq ptr %1, null
  br i1 %.not23, label %20, label %19

19:                                               ; preds = %._crit_edge
  store i64 %.019.lcssa, ptr %1, align 8
  br label %20

20:                                               ; preds = %19, %._crit_edge
  %.not24 = icmp eq ptr %2, null
  br i1 %.not24, label %22, label %21

21:                                               ; preds = %20
  store i64 %.018.lcssa, ptr %2, align 8
  br label %22

22:                                               ; preds = %21, %20
  %.not25 = icmp eq ptr %3, null
  br i1 %.not25, label %24, label %23

23:                                               ; preds = %22
  store i64 %.017.lcssa, ptr %3, align 8
  br label %24

24:                                               ; preds = %23, %22
  ret void
}